(lp0
Vhttps://www.hintonparklander.com/news/local-news/teck-responds-to-questions-over-cardinal-river-mine
p1
aVhttps://www.cbc.ca/news/canada/calgary/repsol-layoffs-alberta-canada-1.5181793?cmp=rss
p2
aVhttps://edmontonjournal.com/news/local-news/city-council-delays-decision-on-proposed-river-valley-solar-farm
p3
aVhttp://www.sylvanlakenews.com/news/shovels-could-be-in-the-ground-on-trans-mountain-by-september-ceo-says/
p4
aVhttps://calgaryherald.com/news/local-news/city-releases-trove-of-confidential-olympic-documents
p5
aVhttps://www.cbc.ca/news/canada/edmonton/solar-farm-referred-1.5182494?cmp=rss
p6
aVhttps://www.cbc.ca/news/canada/calgary/winsport-mountain-biking-skills-park-1.5182073?cmp=rss
p7
aVhttps://panopticnews.com/gatewaygazette/responding-to-springbank-reservoir-regulators/
p8
aVhttp://www.rimbeyreview.com/news/shovels-could-be-in-the-ground-on-trans-mountain-by-september-ceo-says/
p9
aVhttps://globalnews.ca/news/5410244/edmonton-river-valley-solar-panel-project-epcor/
p10
aVhttp://www.stettlerindependent.com/news/shovels-could-be-in-the-ground-on-trans-mountain-by-september-ceo-says/
p11
aVhttp://www.lacombeexpress.com/news/shovels-could-be-in-the-ground-on-trans-mountain-by-september-ceo-says/
p12
aVhttp://www.ponokanews.com/news/shovels-could-be-in-the-ground-on-trans-mountain-by-september-ceo-says/
p13
a.